; Function Attrs: alwaysinline norecurse nounwind uwtable
define internal void @_ZNK4ncnn11Flatten_x867forwardERKNS_3MatERS1_RKNS_6OptionE.omp_outlined.2(ptr noalias noundef readonly captures(none) %0, ptr noalias readnone captures(none) %1, ptr noundef nonnull readonly align 4 captures(none) dereferenceable(4) %2, ptr noundef nonnull readonly align 8 captures(none) dereferenceable(72) %3, ptr noundef nonnull readonly align 8 captures(none) dereferenceable(72) %4, ptr noundef nonnull readonly align 4 captures(none) dereferenceable(4) %5) #7 personality ptr @__gxx_personality_v0 {
  %7 = alloca i32, align 4
  %8 = alloca i32, align 4
  %9 = alloca i32, align 4
  %10 = alloca i32, align 4
  %11 = load i32, ptr %2, align 4, !tbaa !25
  %12 = icmp sgt i32 %11, 0
  br i1 %12, label %13, label %38

13:                                               ; preds = %6
  %14 = add nsw i32 %11, -1
  call void @llvm.lifetime.start.p0(i64 4, ptr nonnull %7) #6
  store i32 0, ptr %7, align 4, !tbaa !25
  call void @llvm.lifetime.start.p0(i64 4, ptr nonnull %8) #6
  store i32 %14, ptr %8, align 4, !tbaa !25
  call void @llvm.lifetime.start.p0(i64 4, ptr nonnull %9) #6
  store i32 1, ptr %9, align 4, !tbaa !25
  call void @llvm.lifetime.start.p0(i64 4, ptr nonnull %10) #6
  store i32 0, ptr %10, align 4, !tbaa !25
  %15 = load i32, ptr %0, align 4, !tbaa !25
  call void @__kmpc_for_static_init_4(ptr nonnull @1, i32 %15, i32 34, ptr nonnull %10, ptr nonnull %7, ptr nonnull %8, ptr nonnull %9, i32 1, i32 1)
  %16 = load i32, ptr %8, align 4, !tbaa !25
  %17 = call i32 @llvm.smin.i32(i32 %16, i32 %14)
  store i32 %17, ptr %8, align 4, !tbaa !25
  %18 = load i32, ptr %7, align 4, !tbaa !25
  %.not34 = icmp sgt i32 %18, %17
  br i1 %.not34, label %._crit_edge36, label %.noexc.lr.ph

.noexc.lr.ph:                                     ; preds = %13
  %19 = load ptr, ptr %3, align 8, !tbaa !17, !noalias !63
  %20 = getelementptr inbounds nuw i8, ptr %3, i64 64
  %21 = load i64, ptr %20, align 8, !tbaa !20, !noalias !63
  %22 = getelementptr inbounds nuw i8, ptr %3, i64 16
  %23 = load i64, ptr %22, align 8, !tbaa !13, !noalias !63
  %factor.op.mul = mul i64 %21, %23
  %24 = load ptr, ptr %4, align 8, !tbaa !17
  %25 = load i32, ptr %5, align 4, !tbaa !25
  %26 = icmp sgt i32 %25, 0
  br i1 %26, label %.noexc.us.preheader, label %._crit_edge36

.noexc.us.preheader:                              ; preds = %.noexc.lr.ph
  %27 = sext i32 %18 to i64
  %28 = zext nneg i32 %25 to i64
  %29 = add nsw i32 %17, 1
  br label %.noexc.us

.noexc.us:                                        ; preds = %.noexc.us.preheader, %._crit_edge.us
  %indvars.iv = phi i64 [ %27, %.noexc.us.preheader ], [ %indvars.iv.next, %._crit_edge.us ]
  %.reass.us = mul i64 %factor.op.mul, %indvars.iv
  %30 = getelementptr inbounds nuw i8, ptr %19, i64 %.reass.us
  %31 = mul nsw i64 %indvars.iv, %28
  %32 = getelementptr inbounds float, ptr %24, i64 %31
  br label %33

33:                                               ; preds = %.noexc.us, %33
  %.033.us = phi i32 [ 0, %.noexc.us ], [ %37, %33 ]
  %.02132.us = phi ptr [ %32, %.noexc.us ], [ %36, %33 ]
  %.02231.us = phi ptr [ %30, %.noexc.us ], [ %34, %33 ]
  %34 = getelementptr inbounds nuw i8, ptr %.02231.us, i64 4
  %35 = load float, ptr %.02231.us, align 4, !tbaa !47
  %36 = getelementptr inbounds nuw i8, ptr %.02132.us, i64 4
  store float %35, ptr %.02132.us, align 4, !tbaa !47
  %37 = add nuw nsw i32 %.033.us, 1
  %exitcond.not = icmp eq i32 %37, %25
  br i1 %exitcond.not, label %._crit_edge.us, label %33, !llvm.loop !66

._crit_edge.us:                                   ; preds = %33
  %indvars.iv.next = add nsw i64 %indvars.iv, 1
  %lftr.wideiv = trunc i64 %indvars.iv.next to i32
  %exitcond42.not = icmp eq i32 %29, %lftr.wideiv
  br i1 %exitcond42.not, label %._crit_edge36, label %.noexc.us

._crit_edge36:                                    ; preds = %._crit_edge.us, %.noexc.lr.ph, %13
  call void @__kmpc_for_static_fini(ptr nonnull @1, i32 %15)
  call void @llvm.lifetime.end.p0(i64 4, ptr nonnull %10) #6
  call void @llvm.lifetime.end.p0(i64 4, ptr nonnull %9) #6
  call void @llvm.lifetime.end.p0(i64 4, ptr nonnull %8) #6
  call void @llvm.lifetime.end.p0(i64 4, ptr nonnull %7) #6
  br label %38

38:                                               ; preds = %._crit_edge36, %6
  ret void
}